target datalayout = "e-m:e-p270:32:32-p271:32:32-p272:64:64-i64:64-i128:128-f80:128-n8:16:32:64-S128"
target triple = "x86_64-pc-linux-gnu"

; Function Attrs: nounwind uwtable
define dso_local i32 @starts_with(ptr noundef %0, ptr noundef %1) #0 {
  %3 = alloca i32, align 4
  %4 = alloca ptr, align 8
  %5 = alloca ptr, align 8
  store ptr %0, ptr %4, align 8, !tbaa !4
  store ptr %1, ptr %5, align 8, !tbaa !4
  br label %6

6:                                                ; preds = %22, %2
  %7 = load ptr, ptr %5, align 8, !tbaa !4
  %8 = load i8, ptr %7, align 1, !tbaa !9
  %9 = icmp ne i8 %8, 0
  br i1 %9, label %11, label %10

10:                                               ; preds = %6
  store i32 1, ptr %3, align 4
  br label %27

11:                                               ; preds = %6
  %12 = load ptr, ptr %4, align 8, !tbaa !4
  %13 = load i8, ptr %12, align 1, !tbaa !9
  %14 = sext i8 %13 to i32
  %15 = load ptr, ptr %5, align 8, !tbaa !4
  %16 = load i8, ptr %15, align 1, !tbaa !9
  %17 = sext i8 %16 to i32
  %18 = icmp ne i32 %14, %17
  br i1 %18, label %19, label %20

19:                                               ; preds = %11
  store i32 0, ptr %3, align 4
  br label %27

20:                                               ; preds = %11
  br label %21

21:                                               ; preds = %20
  br label %22

22:                                               ; preds = %21
  %23 = load ptr, ptr %4, align 8, !tbaa !4
  %24 = getelementptr inbounds nuw i8, ptr %23, i32 1
  store ptr %24, ptr %4, align 8, !tbaa !4
  %25 = load ptr, ptr %5, align 8, !tbaa !4
  %26 = getelementptr inbounds nuw i8, ptr %25, i32 1
  store ptr %26, ptr %5, align 8, !tbaa !4
  br label %6

27:                                               ; preds = %19, %10
  %28 = load i32, ptr %3, align 4
  ret i32 %28
}