; Function Attrs: nofree norecurse nosync nounwind memory(argmem: read) uwtable
define dso_local range(i32 0, 2) i32 @starts_with(ptr noundef readonly captures(none) %0, ptr noundef readonly captures(none) %1) local_unnamed_addr #0 {
  %3 = load i8, ptr %1, align 1, !tbaa !4
  %.not9 = icmp eq i8 %3, 0
  br i1 %.not9, label %._crit_edge, label %.lr.ph

.lr.ph:                                           ; preds = %2, %6
  %4 = phi i8 [ %9, %6 ], [ %3, %2 ]
  %.011 = phi ptr [ %8, %6 ], [ %1, %2 ]
  %.0510 = phi ptr [ %7, %6 ], [ %0, %2 ]
  %5 = load i8, ptr %.0510, align 1, !tbaa !4
  %.not8 = icmp eq i8 %5, %4
  br i1 %.not8, label %6, label %._crit_edge

6:                                                ; preds = %.lr.ph
  %7 = getelementptr inbounds nuw i8, ptr %.0510, i64 1
  %8 = getelementptr inbounds nuw i8, ptr %.011, i64 1
  %9 = load i8, ptr %8, align 1, !tbaa !4
  %.not = icmp eq i8 %9, 0
  br i1 %.not, label %._crit_edge, label %.lr.ph

._crit_edge:                                      ; preds = %6, %.lr.ph, %2
  %.06 = phi i32 [ 1, %2 ], [ 0, %.lr.ph ], [ 1, %6 ]
  ret i32 %.06
}